target datalayout = "e-m:e-p270:32:32-p271:32:32-p272:64:64-i64:64-f80:128-n8:16:32:64-S128"
target triple = "x86_64-pc-linux-gnu"

@.str = private unnamed_addr constant [4 x i8] c"%s\0A\00", align 1

; Function Attrs: noinline nounwind uwtable
define dso_local void @main() #0 {
  %1 = alloca [5000 x i8], align 16
  %2 = alloca [50 x [100 x i8]], align 16
  %3 = alloca [50 x i32], align 16
  %4 = alloca i32, align 4
  %5 = alloca i32, align 4
  %6 = alloca i32, align 4
  %7 = alloca i32, align 4
  %8 = alloca i32, align 4
  %9 = alloca i32, align 4
  %10 = alloca i32, align 4
  %11 = bitcast [50 x i32]* %3 to i8*
  call void @llvm.memset.p0i8.i64(i8* align 16 %11, i8 0, i64 200, i1 false)
  store i32 0, i32* %6, align 4
  store i32 0, i32* %8, align 4
  store i32 0, i32* %9, align 4
  store i32 0, i32* %10, align 4
  store i32 0, i32* %4, align 4
  br label %12

12:                                               ; preds = %19, %0
  %13 = load i32, i32* %4, align 4
  %14 = icmp slt i32 %13, 5000
  br i1 %14, label %15, label %22

15:                                               ; preds = %12
  %16 = load i32, i32* %4, align 4
  %17 = sext i32 %16 to i64
  %18 = getelementptr inbounds [5000 x i8], [5000 x i8]* %1, i64 0, i64 %17
  store i8 0, i8* %18, align 1
  br label %19

19:                                               ; preds = %15
  %20 = load i32, i32* %4, align 4
  %21 = add nsw i32 %20, 1
  store i32 %21, i32* %4, align 4
  br label %12

22:                                               ; preds = %12
  %23 = getelementptr inbounds [5000 x i8], [5000 x i8]* %1, i64 0, i64 0
  %24 = call i32 (i8*, ...) bitcast (i32 (...)* @gets to i32 (i8*, ...)*)(i8* %23)
  store i32 0, i32* %4, align 4
  br label %25

25:                                               ; preds = %84, %22
  %26 = load i32, i32* %4, align 4
  %27 = sext i32 %26 to i64
  %28 = getelementptr inbounds [5000 x i8], [5000 x i8]* %1, i64 0, i64 0
  %29 = call i64 @strlen(i8* %28) #4
  %30 = icmp ult i64 %27, %29
  br i1 %30, label %31, label %98

31:                                               ; preds = %25
  store i32 0, i32* %5, align 4
  br label %32

32:                                               ; preds = %81, %31
  %33 = load i32, i32* %5, align 4
  %34 = load i32, i32* %10, align 4
  %35 = add nsw i32 %33, %34
  %36 = load i32, i32* %6, align 4
  %37 = add nsw i32 %35, %36
  %38 = sext i32 %37 to i64
  %39 = getelementptr inbounds [5000 x i8], [5000 x i8]* %1, i64 0, i64 %38
  %40 = load i8, i8* %39, align 1
  %41 = sext i8 %40 to i32
  %42 = icmp ne i32 %41, 32
  br i1 %42, label %43, label %54

43:                                               ; preds = %32
  %44 = load i32, i32* %5, align 4
  %45 = load i32, i32* %10, align 4
  %46 = add nsw i32 %44, %45
  %47 = load i32, i32* %6, align 4
  %48 = add nsw i32 %46, %47
  %49 = sext i32 %48 to i64
  %50 = getelementptr inbounds [5000 x i8], [5000 x i8]* %1, i64 0, i64 %49
  %51 = load i8, i8* %50, align 1
  %52 = sext i8 %51 to i32
  %53 = icmp ne i32 %52, 0
  br label %54

54:                                               ; preds = %43, %32
  %55 = phi i1 [ false, %32 ], [ %53, %43 ]
  br i1 %55, label %56, label %84

56:                                               ; preds = %54
  %57 = load i32, i32* %6, align 4
  %58 = sext i32 %57 to i64
  %59 = getelementptr inbounds [50 x i32], [50 x i32]* %3, i64 0, i64 %58
  %60 = load i32, i32* %59, align 4
  %61 = add nsw i32 %60, 1
  %62 = load i32, i32* %6, align 4
  %63 = sext i32 %62 to i64
  %64 = getelementptr inbounds [50 x i32], [50 x i32]* %3, i64 0, i64 %63
  store i32 %61, i32* %64, align 4
  %65 = load i32, i32* %5, align 4
  %66 = load i32, i32* %10, align 4
  %67 = add nsw i32 %65, %66
  %68 = load i32, i32* %6, align 4
  %69 = add nsw i32 %67, %68
  %70 = sext i32 %69 to i64
  %71 = getelementptr inbounds [5000 x i8], [5000 x i8]* %1, i64 0, i64 %70
  %72 = load i8, i8* %71, align 1
  %73 = load i32, i32* %6, align 4
  %74 = sext i32 %73 to i64
  %75 = getelementptr inbounds [50 x [100 x i8]], [50 x [100 x i8]]* %2, i64 0, i64 %74
  %76 = load i32, i32* %5, align 4
  %77 = sext i32 %76 to i64
  %78 = getelementptr inbounds [100 x i8], [100 x i8]* %75, i64 0, i64 %77
  store i8 %72, i8* %78, align 1
  %79 = load i32, i32* %4, align 4
  %80 = add nsw i32 %79, 1
  store i32 %80, i32* %4, align 4
  br label %81

81:                                               ; preds = %56
  %82 = load i32, i32* %5, align 4
  %83 = add nsw i32 %82, 1
  store i32 %83, i32* %5, align 4
  br label %32

84:                                               ; preds = %54
  %85 = load i32, i32* %6, align 4
  %86 = sext i32 %85 to i64
  %87 = getelementptr inbounds [50 x [100 x i8]], [50 x [100 x i8]]* %2, i64 0, i64 %86
  %88 = load i32, i32* %5, align 4
  %89 = sext i32 %88 to i64
  %90 = getelementptr inbounds [100 x i8], [100 x i8]* %87, i64 0, i64 %89
  store i8 0, i8* %90, align 1
  %91 = load i32, i32* %6, align 4
  %92 = add nsw i32 %91, 1
  store i32 %92, i32* %6, align 4
  %93 = load i32, i32* %4, align 4
  %94 = add nsw i32 %93, 1
  store i32 %94, i32* %4, align 4
  %95 = load i32, i32* %5, align 4
  %96 = load i32, i32* %10, align 4
  %97 = add nsw i32 %95, %96
  store i32 %97, i32* %10, align 4
  br label %25

98:                                               ; preds = %25
  %99 = getelementptr inbounds [50 x i32], [50 x i32]* %3, i64 0, i64 0
  %100 = load i32, i32* %99, align 16
  store i32 %100, i32* %8, align 4
  %101 = getelementptr inbounds [50 x i32], [50 x i32]* %3, i64 0, i64 0
  %102 = load i32, i32* %101, align 16
  store i32 %102, i32* %9, align 4
  store i32 1, i32* %7, align 4
  br label %103

103:                                              ; preds = %120, %98
  %104 = load i32, i32* %7, align 4
  %105 = load i32, i32* %6, align 4
  %106 = icmp slt i32 %104, %105
  br i1 %106, label %107, label %123

107:                                              ; preds = %103
  %108 = load i32, i32* %7, align 4
  %109 = sext i32 %108 to i64
  %110 = getelementptr inbounds [50 x i32], [50 x i32]* %3, i64 0, i64 %109
  %111 = load i32, i32* %110, align 4
  %112 = load i32, i32* %8, align 4
  %113 = icmp sgt i32 %111, %112
  br i1 %113, label %114, label %119

114:                                              ; preds = %107
  %115 = load i32, i32* %7, align 4
  %116 = sext i32 %115 to i64
  %117 = getelementptr inbounds [50 x i32], [50 x i32]* %3, i64 0, i64 %116
  %118 = load i32, i32* %117, align 4
  store i32 %118, i32* %8, align 4
  br label %119

119:                                              ; preds = %114, %107
  br label %120

120:                                              ; preds = %119
  %121 = load i32, i32* %7, align 4
  %122 = add nsw i32 %121, 1
  store i32 %122, i32* %7, align 4
  br label %103

123:                                              ; preds = %103
  store i32 1, i32* %7, align 4
  br label %124

124:                                              ; preds = %141, %123
  %125 = load i32, i32* %7, align 4
  %126 = load i32, i32* %6, align 4
  %127 = icmp slt i32 %125, %126
  br i1 %127, label %128, label %144

128:                                              ; preds = %124
  %129 = load i32, i32* %7, align 4
  %130 = sext i32 %129 to i64
  %131 = getelementptr inbounds [50 x i32], [50 x i32]* %3, i64 0, i64 %130
  %132 = load i32, i32* %131, align 4
  %133 = load i32, i32* %9, align 4
  %134 = icmp slt i32 %132, %133
  br i1 %134, label %135, label %140

135:                                              ; preds = %128
  %136 = load i32, i32* %7, align 4
  %137 = sext i32 %136 to i64
  %138 = getelementptr inbounds [50 x i32], [50 x i32]* %3, i64 0, i64 %137
  %139 = load i32, i32* %138, align 4
  store i32 %139, i32* %9, align 4
  br label %140

140:                                              ; preds = %135, %128
  br label %141

141:                                              ; preds = %140
  %142 = load i32, i32* %7, align 4
  %143 = add nsw i32 %142, 1
  store i32 %143, i32* %7, align 4
  br label %124

144:                                              ; preds = %124
  store i32 0, i32* %7, align 4
  br label %145

145:                                              ; preds = %163, %144
  %146 = load i32, i32* %7, align 4
  %147 = load i32, i32* %6, align 4
  %148 = icmp slt i32 %146, %147
  br i1 %148, label %149, label %166

149:                                              ; preds = %145
  %150 = load i32, i32* %8, align 4
  %151 = load i32, i32* %7, align 4
  %152 = sext i32 %151 to i64
  %153 = getelementptr inbounds [50 x i32], [50 x i32]* %3, i64 0, i64 %152
  %154 = load i32, i32* %153, align 4
  %155 = icmp eq i32 %150, %154
  br i1 %155, label %156, label %162

156:                                              ; preds = %149
  %157 = load i32, i32* %7, align 4
  %158 = sext i32 %157 to i64
  %159 = getelementptr inbounds [50 x [100 x i8]], [50 x [100 x i8]]* %2, i64 0, i64 %158
  %160 = getelementptr inbounds [100 x i8], [100 x i8]* %159, i64 0, i64 0
  %161 = call i32 (i8*, ...) @printf(i8* getelementptr inbounds ([4 x i8], [4 x i8]* @.str, i64 0, i64 0), i8* %160)
  br label %166

162:                                              ; preds = %149
  br label %163

163:                                              ; preds = %162
  %164 = load i32, i32* %7, align 4
  %165 = add nsw i32 %164, 1
  store i32 %165, i32* %7, align 4
  br label %145

166:                                              ; preds = %156, %145
  store i32 0, i32* %7, align 4
  br label %167

167:                                              ; preds = %185, %166
  %168 = load i32, i32* %7, align 4
  %169 = load i32, i32* %6, align 4
  %170 = icmp slt i32 %168, %169
  br i1 %170, label %171, label %188

171:                                              ; preds = %167
  %172 = load i32, i32* %9, align 4
  %173 = load i32, i32* %7, align 4
  %174 = sext i32 %173 to i64
  %175 = getelementptr inbounds [50 x i32], [50 x i32]* %3, i64 0, i64 %174
  %176 = load i32, i32* %175, align 4
  %177 = icmp eq i32 %172, %176
  br i1 %177, label %178, label %184

178:                                              ; preds = %171
  %179 = load i32, i32* %7, align 4
  %180 = sext i32 %179 to i64
  %181 = getelementptr inbounds [50 x [100 x i8]], [50 x [100 x i8]]* %2, i64 0, i64 %180
  %182 = getelementptr inbounds [100 x i8], [100 x i8]* %181, i64 0, i64 0
  %183 = call i32 (i8*, ...) @printf(i8* getelementptr inbounds ([4 x i8], [4 x i8]* @.str, i64 0, i64 0), i8* %182)
  br label %188

184:                                              ; preds = %171
  br label %185

185:                                              ; preds = %184
  %186 = load i32, i32* %7, align 4
  %187 = add nsw i32 %186, 1
  store i32 %187, i32* %7, align 4
  br label %167

188:                                              ; preds = %178, %167
  ret void
}